; ModuleID = '29/710.c'
source_filename = "29/710.c"
target datalayout = "e-m:e-p270:32:32-p271:32:32-p272:64:64-i64:64-f80:128-n8:16:32:64-S128"
target triple = "x86_64-pc-linux-gnu"

@.str = private unnamed_addr constant [3 x i8] c"%d\00", align 1
@.str.1 = private unnamed_addr constant [7 x i8] c"%.3lf\0A\00", align 1

; Function Attrs: noinline nounwind uwtable
define dso_local i32 @main() #0 {
  %1 = alloca i32, align 4
  %2 = alloca i32, align 4
  %3 = alloca i32, align 4
  %4 = alloca i32, align 4
  %5 = alloca i32, align 4
  %6 = alloca [100 x i32], align 16
  %7 = alloca double, align 8
  store i32 0, i32* %1, align 4
  store double 0.000000e+00, double* %7, align 8
  %8 = call i32 (i8*, ...) @__isoc99_scanf(i8* getelementptr inbounds ([3 x i8], [3 x i8]* @.str, i64 0, i64 0), i32* %3)
  %9 = getelementptr inbounds [100 x i32], [100 x i32]* %6, i64 0, i64 1
  store i32 1, i32* %9, align 4
  %10 = getelementptr inbounds [100 x i32], [100 x i32]* %6, i64 0, i64 2
  store i32 2, i32* %10, align 8
  store i32 3, i32* %4, align 4
  br label %11

11:                                               ; preds = %29, %0
  %12 = load i32, i32* %4, align 4
  %13 = icmp slt i32 %12, 100
  br i1 %13, label %14, label %32

14:                                               ; preds = %11
  %15 = load i32, i32* %4, align 4
  %16 = sub nsw i32 %15, 1
  %17 = sext i32 %16 to i64
  %18 = getelementptr inbounds [100 x i32], [100 x i32]* %6, i64 0, i64 %17
  %19 = load i32, i32* %18, align 4
  %20 = load i32, i32* %4, align 4
  %21 = sub nsw i32 %20, 2
  %22 = sext i32 %21 to i64
  %23 = getelementptr inbounds [100 x i32], [100 x i32]* %6, i64 0, i64 %22
  %24 = load i32, i32* %23, align 4
  %25 = add nsw i32 %19, %24
  %26 = load i32, i32* %4, align 4
  %27 = sext i32 %26 to i64
  %28 = getelementptr inbounds [100 x i32], [100 x i32]* %6, i64 0, i64 %27
  store i32 %25, i32* %28, align 4
  br label %29

29:                                               ; preds = %14
  %30 = load i32, i32* %4, align 4
  %31 = add nsw i32 %30, 1
  store i32 %31, i32* %4, align 4
  br label %11

32:                                               ; preds = %11
  store i32 0, i32* %4, align 4
  br label %33

33:                                               ; preds = %64, %32
  %34 = load i32, i32* %4, align 4
  %35 = load i32, i32* %3, align 4
  %36 = icmp slt i32 %34, %35
  br i1 %36, label %37, label %67

37:                                               ; preds = %33
  %38 = call i32 (i8*, ...) @__isoc99_scanf(i8* getelementptr inbounds ([3 x i8], [3 x i8]* @.str, i64 0, i64 0), i32* %2)
  store i32 1, i32* %5, align 4
  br label %39

39:                                               ; preds = %58, %37
  %40 = load i32, i32* %5, align 4
  %41 = load i32, i32* %2, align 4
  %42 = icmp sle i32 %40, %41
  br i1 %42, label %43, label %61

43:                                               ; preds = %39
  %44 = load double, double* %7, align 8
  %45 = load i32, i32* %5, align 4
  %46 = add nsw i32 %45, 1
  %47 = sext i32 %46 to i64
  %48 = getelementptr inbounds [100 x i32], [100 x i32]* %6, i64 0, i64 %47
  %49 = load i32, i32* %48, align 4
  %50 = sitofp i32 %49 to double
  %51 = load i32, i32* %5, align 4
  %52 = sext i32 %51 to i64
  %53 = getelementptr inbounds [100 x i32], [100 x i32]* %6, i64 0, i64 %52
  %54 = load i32, i32* %53, align 4
  %55 = sitofp i32 %54 to double
  %56 = fdiv double %50, %55
  %57 = fadd double %44, %56
  store double %57, double* %7, align 8
  br label %58

58:                                               ; preds = %43
  %59 = load i32, i32* %5, align 4
  %60 = add nsw i32 %59, 1
  store i32 %60, i32* %5, align 4
  br label %39

61:                                               ; preds = %39
  %62 = load double, double* %7, align 8
  %63 = call i32 (i8*, ...) @printf(i8* getelementptr inbounds ([7 x i8], [7 x i8]* @.str.1, i64 0, i64 0), double %62)
  store double 0.000000e+00, double* %7, align 8
  br label %64

64:                                               ; preds = %61
  %65 = load i32, i32* %4, align 4
  %66 = add nsw i32 %65, 1
  store i32 %66, i32* %4, align 4
  br label %33

67:                                               ; preds = %33
  ret i32 0
}

declare dso_local i32 @__isoc99_scanf(i8*, ...) #1

declare dso_local i32 @printf(i8*, ...) #1


!llvm.module.flags = !{!0}
!llvm.ident = !{!1}

!0 = !{i32 1, !"wchar_size", i32 4}
!1 = !{!"clang version 10.0.0-4ubuntu1 "}
